target datalayout = "e-m:e-p270:32:32-p271:32:32-p272:64:64-i64:64-i128:128-f80:128-n8:16:32:64-S128"
target triple = "x86_64-unknown-linux-gnu"

%"class.google::protobuf::io::ZeroCopyInputStream" = type { ptr }
%"class.google::protobuf::io::LimitingInputStream" = type { %"class.google::protobuf::io::ZeroCopyInputStream", ptr, i64, i64 }

@_ZTVN6google8protobuf2io19ZeroCopyInputStreamE = external unnamed_addr constant { [9 x ptr] }, align 8

; Function Attrs: mustprogress nounwind uwtable
define linkonce_odr hidden void @_ZN6google8protobuf2io19ZeroCopyInputStreamD2Ev(ptr noundef nonnull align 8 dereferenceable(8) %this) unnamed_addr #4 comdat align 2 {
entry:
  %this.addr = alloca ptr, align 8
  store ptr %this, ptr %this.addr, align 8
  ret void
}

; Function Attrs: mustprogress nounwind uwtable
define linkonce_odr hidden void @_ZN6google8protobuf2io19ZeroCopyInputStreamC2Ev(ptr noundef nonnull align 8 dereferenceable(8) %this) unnamed_addr #4 comdat align 2 {
entry:
  %this.addr = alloca ptr, align 8
  store ptr %this, ptr %this.addr, align 8
  %this1 = load ptr, ptr %this.addr, align 8
  store ptr getelementptr inbounds ({ [9 x ptr] }, ptr @_ZTVN6google8protobuf2io19ZeroCopyInputStreamE, i32 0, i32 0, i32 2), ptr %this1, align 8
  ret void
}

; Function Attrs: mustprogress uwtable
define void @_ZN6google8protobuf2io19LimitingInputStreamC2EPNS1_19ZeroCopyInputStreamEl(ptr noundef nonnull align 8 dereferenceable(32) %this, ptr noundef %input, i64 noundef %limit) unnamed_addr #5 align 2 personality ptr @__gxx_personality_v0 {
entry:
  %this.addr = alloca ptr, align 8
  %input.addr = alloca ptr, align 8
  %limit.addr = alloca i64, align 8
  %exn.slot = alloca ptr, align 8
  %ehselector.slot = alloca i32, align 4
  store ptr %this, ptr %this.addr, align 8
  store ptr %input, ptr %input.addr, align 8
  store i64 %limit, ptr %limit.addr, align 8
  %this1 = load ptr, ptr %this.addr, align 8
  call void @_ZN6google8protobuf2io19ZeroCopyInputStreamC2Ev(ptr noundef nonnull align 8 dereferenceable(8) %this1) #3
  store ptr getelementptr inbounds ({ [9 x ptr] }, ptr @_ZTVN6google8protobuf2io19LimitingInputStreamE, i32 0, i32 0, i32 2), ptr %this1, align 8
  %input_ = getelementptr inbounds %"class.google::protobuf::io::LimitingInputStream", ptr %this1, i32 0, i32 1
  %0 = load ptr, ptr %input.addr, align 8
  store ptr %0, ptr %input_, align 8
  %limit_ = getelementptr inbounds %"class.google::protobuf::io::LimitingInputStream", ptr %this1, i32 0, i32 2
  %1 = load i64, ptr %limit.addr, align 8
  store i64 %1, ptr %limit_, align 8
  %input_2 = getelementptr inbounds %"class.google::protobuf::io::LimitingInputStream", ptr %this1, i32 0, i32 1
  %2 = load ptr, ptr %input_2, align 8
  %vtable = load ptr, ptr %2, align 8
  %vfn = getelementptr inbounds ptr, ptr %vtable, i64 5
  %3 = load ptr, ptr %vfn, align 8
  %call = invoke noundef i64 %3(ptr noundef nonnull align 8 dereferenceable(8) %2)
          to label %invoke.cont unwind label %lpad

invoke.cont:                                      ; preds = %entry
  %prior_bytes_read_ = getelementptr inbounds %"class.google::protobuf::io::LimitingInputStream", ptr %this1, i32 0, i32 3
  store i64 %call, ptr %prior_bytes_read_, align 8
  ret void

lpad:                                             ; preds = %entry
  %4 = landingpad { ptr, i32 }
          cleanup
  %5 = extractvalue { ptr, i32 } %4, 0
  store ptr %5, ptr %exn.slot, align 8
  %6 = extractvalue { ptr, i32 } %4, 1
  store i32 %6, ptr %ehselector.slot, align 4
  call void @_ZN6google8protobuf2io19ZeroCopyInputStreamD2Ev(ptr noundef nonnull align 8 dereferenceable(8) %this1) #3
  br label %eh.resume

eh.resume:                                        ; preds = %lpad
  %exn = load ptr, ptr %exn.slot, align 8
  %sel = load i32, ptr %ehselector.slot, align 4
  %lpad.val = insertvalue { ptr, i32 } poison, ptr %exn, 0
  %lpad.val3 = insertvalue { ptr, i32 } %lpad.val, i32 %sel, 1
  resume { ptr, i32 } %lpad.val3
}