; Function Attrs: mustprogress uwtable
define void @_ZN6google8protobuf2io19LimitingInputStreamC2EPNS1_19ZeroCopyInputStreamEl(ptr nocapture noundef nonnull writeonly align 8 dereferenceable(32) %this, ptr noundef %input, i64 noundef %limit) unnamed_addr #5 align 2 personality ptr @__gxx_personality_v0 {
entry:
  store ptr getelementptr inbounds ({ [9 x ptr] }, ptr @_ZTVN6google8protobuf2io19LimitingInputStreamE, i64 0, i32 0, i64 2), ptr %this, align 8
  %input_ = getelementptr inbounds i8, ptr %this, i64 8
  store ptr %input, ptr %input_, align 8
  %limit_ = getelementptr inbounds i8, ptr %this, i64 16
  store i64 %limit, ptr %limit_, align 8
  %vtable = load ptr, ptr %input, align 8
  %vfn = getelementptr inbounds i8, ptr %vtable, i64 40
  %0 = load ptr, ptr %vfn, align 8
  %call = tail call noundef i64 %0(ptr noundef nonnull align 8 dereferenceable(8) %input)
  %prior_bytes_read_ = getelementptr inbounds i8, ptr %this, i64 24
  store i64 %call, ptr %prior_bytes_read_, align 8
  ret void
}